; ModuleID = '7/767.c'
source_filename = "7/767.c"
target datalayout = "e-m:e-p270:32:32-p271:32:32-p272:64:64-i64:64-f80:128-n8:16:32:64-S128"
target triple = "x86_64-pc-linux-gnu"

@.str = private unnamed_addr constant [3 x i8] c"%s\00", align 1
@.str.1 = private unnamed_addr constant [3 x i8] c"%c\00", align 1

; Function Attrs: noinline nounwind uwtable
define dso_local i32 @main() #0 {
  %1 = alloca i32, align 4
  %2 = alloca i32, align 4
  %3 = alloca i32, align 4
  %4 = alloca i32, align 4
  %5 = alloca i32, align 4
  %6 = alloca i32, align 4
  %7 = alloca [256 x i8], align 16
  %8 = alloca [256 x i8], align 16
  %9 = alloca [256 x i8], align 16
  %10 = alloca [256 x i8], align 16
  store i32 0, i32* %1, align 4
  store i32 0, i32* %6, align 4
  %11 = getelementptr inbounds [256 x i8], [256 x i8]* %7, i64 0, i64 0
  %12 = call i32 (i8*, ...) bitcast (i32 (...)* @gets to i32 (i8*, ...)*)(i8* %11)
  %13 = getelementptr inbounds [256 x i8], [256 x i8]* %8, i64 0, i64 0
  %14 = call i32 (i8*, ...) bitcast (i32 (...)* @gets to i32 (i8*, ...)*)(i8* %13)
  %15 = getelementptr inbounds [256 x i8], [256 x i8]* %9, i64 0, i64 0
  %16 = call i32 (i8*, ...) bitcast (i32 (...)* @gets to i32 (i8*, ...)*)(i8* %15)
  %17 = getelementptr inbounds [256 x i8], [256 x i8]* %7, i64 0, i64 0
  %18 = call i64 @strlen(i8* %17) #3
  %19 = trunc i64 %18 to i32
  store i32 %19, i32* %2, align 4
  %20 = getelementptr inbounds [256 x i8], [256 x i8]* %8, i64 0, i64 0
  %21 = call i64 @strlen(i8* %20) #3
  %22 = trunc i64 %21 to i32
  store i32 %22, i32* %3, align 4
  store i32 0, i32* %4, align 4
  br label %23

23:                                               ; preds = %59, %0
  %24 = load i32, i32* %4, align 4
  %25 = load i32, i32* %2, align 4
  %26 = load i32, i32* %3, align 4
  %27 = sub nsw i32 %25, %26
  %28 = add nsw i32 %27, 1
  %29 = icmp slt i32 %24, %28
  br i1 %29, label %30, label %62

30:                                               ; preds = %23
  store i32 0, i32* %5, align 4
  br label %31

31:                                               ; preds = %45, %30
  %32 = load i32, i32* %5, align 4
  %33 = load i32, i32* %3, align 4
  %34 = icmp slt i32 %32, %33
  br i1 %34, label %35, label %48

35:                                               ; preds = %31
  %36 = load i32, i32* %5, align 4
  %37 = load i32, i32* %4, align 4
  %38 = add nsw i32 %36, %37
  %39 = sext i32 %38 to i64
  %40 = getelementptr inbounds [256 x i8], [256 x i8]* %7, i64 0, i64 %39
  %41 = load i8, i8* %40, align 1
  %42 = load i32, i32* %5, align 4
  %43 = sext i32 %42 to i64
  %44 = getelementptr inbounds [256 x i8], [256 x i8]* %10, i64 0, i64 %43
  store i8 %41, i8* %44, align 1
  br label %45

45:                                               ; preds = %35
  %46 = load i32, i32* %5, align 4
  %47 = add nsw i32 %46, 1
  store i32 %47, i32* %5, align 4
  br label %31

48:                                               ; preds = %31
  %49 = load i32, i32* %5, align 4
  %50 = sext i32 %49 to i64
  %51 = getelementptr inbounds [256 x i8], [256 x i8]* %10, i64 0, i64 %50
  store i8 0, i8* %51, align 1
  %52 = getelementptr inbounds [256 x i8], [256 x i8]* %10, i64 0, i64 0
  %53 = getelementptr inbounds [256 x i8], [256 x i8]* %8, i64 0, i64 0
  %54 = call i32 @strcmp(i8* %52, i8* %53) #3
  %55 = icmp eq i32 %54, 0
  br i1 %55, label %56, label %58

56:                                               ; preds = %48
  %57 = load i32, i32* %4, align 4
  store i32 %57, i32* %6, align 4
  br label %62

58:                                               ; preds = %48
  br label %59

59:                                               ; preds = %58
  %60 = load i32, i32* %4, align 4
  %61 = add nsw i32 %60, 1
  store i32 %61, i32* %4, align 4
  br label %23

62:                                               ; preds = %56, %23
  %63 = load i32, i32* %6, align 4
  %64 = icmp eq i32 %63, 0
  br i1 %64, label %65, label %68

65:                                               ; preds = %62
  %66 = getelementptr inbounds [256 x i8], [256 x i8]* %7, i64 0, i64 0
  %67 = call i32 (i8*, ...) @printf(i8* getelementptr inbounds ([3 x i8], [3 x i8]* @.str, i64 0, i64 0), i8* %66)
  br label %104

68:                                               ; preds = %62
  store i32 0, i32* %4, align 4
  br label %69

69:                                               ; preds = %80, %68
  %70 = load i32, i32* %4, align 4
  %71 = load i32, i32* %6, align 4
  %72 = icmp slt i32 %70, %71
  br i1 %72, label %73, label %83

73:                                               ; preds = %69
  %74 = load i32, i32* %4, align 4
  %75 = sext i32 %74 to i64
  %76 = getelementptr inbounds [256 x i8], [256 x i8]* %7, i64 0, i64 %75
  %77 = load i8, i8* %76, align 1
  %78 = sext i8 %77 to i32
  %79 = call i32 (i8*, ...) @printf(i8* getelementptr inbounds ([3 x i8], [3 x i8]* @.str.1, i64 0, i64 0), i32 %78)
  br label %80

80:                                               ; preds = %73
  %81 = load i32, i32* %4, align 4
  %82 = add nsw i32 %81, 1
  store i32 %82, i32* %4, align 4
  br label %69

83:                                               ; preds = %69
  %84 = getelementptr inbounds [256 x i8], [256 x i8]* %9, i64 0, i64 0
  %85 = call i32 (i8*, ...) @printf(i8* getelementptr inbounds ([3 x i8], [3 x i8]* @.str, i64 0, i64 0), i8* %84)
  %86 = load i32, i32* %6, align 4
  %87 = load i32, i32* %3, align 4
  %88 = add nsw i32 %86, %87
  store i32 %88, i32* %4, align 4
  br label %89

89:                                               ; preds = %100, %83
  %90 = load i32, i32* %4, align 4
  %91 = load i32, i32* %2, align 4
  %92 = icmp slt i32 %90, %91
  br i1 %92, label %93, label %103

93:                                               ; preds = %89
  %94 = load i32, i32* %4, align 4
  %95 = sext i32 %94 to i64
  %96 = getelementptr inbounds [256 x i8], [256 x i8]* %7, i64 0, i64 %95
  %97 = load i8, i8* %96, align 1
  %98 = sext i8 %97 to i32
  %99 = call i32 (i8*, ...) @printf(i8* getelementptr inbounds ([3 x i8], [3 x i8]* @.str.1, i64 0, i64 0), i32 %98)
  br label %100

100:                                              ; preds = %93
  %101 = load i32, i32* %4, align 4
  %102 = add nsw i32 %101, 1
  store i32 %102, i32* %4, align 4
  br label %89

103:                                              ; preds = %89
  br label %104

104:                                              ; preds = %103, %65
  ret i32 0
}

declare dso_local i32 @gets(...) #1

; Function Attrs: nounwind readonly
declare dso_local i64 @strlen(i8*) #2

; Function Attrs: nounwind readonly
declare dso_local i32 @strcmp(i8*, i8*) #2

declare dso_local i32 @printf(i8*, ...) #1


!llvm.module.flags = !{!0}
!llvm.ident = !{!1}

!0 = !{i32 1, !"wchar_size", i32 4}
!1 = !{!"clang version 10.0.0-4ubuntu1 "}
